target datalayout = "e-m:e-p270:32:32-p271:32:32-p272:64:64-i64:64-i128:128-f80:128-n8:16:32:64-S128"
target triple = "x86_64-pc-linux-gnu"

@s_pManCnf = internal global ptr null, align 8

; Function Attrs: nounwind uwtable
define void @Cnf_ManPrepare() #0 {
  %1 = load ptr, ptr @s_pManCnf, align 8, !tbaa !3
  %2 = icmp eq ptr %1, null
  br i1 %2, label %3, label %5

3:                                                ; preds = %0
  %4 = call ptr (...) @Cnf_ManStart()
  store ptr %4, ptr @s_pManCnf, align 8, !tbaa !3
  br label %5

5:                                                ; preds = %3, %0
  ret void
}

; Function Attrs: nounwind uwtable
define ptr @Cnf_DeriveOther(ptr noundef %0, i32 noundef %1) #0 {
  %3 = alloca ptr, align 8
  %4 = alloca i32, align 4
  store ptr %0, ptr %3, align 8, !tbaa !8
  store i32 %1, ptr %4, align 4, !tbaa !29
  call void @Cnf_ManPrepare()
  %5 = load ptr, ptr @s_pManCnf, align 8, !tbaa !3
  %6 = load ptr, ptr %3, align 8, !tbaa !8
  %7 = load i32, ptr %4, align 4, !tbaa !29
  %8 = call ptr @Cnf_DeriveOtherWithMan(ptr noundef %5, ptr noundef %6, i32 noundef %7)
  ret ptr %8
}