; Function Attrs: nounwind uwtable
define ptr @Cnf_DeriveOther(ptr noundef %0, i32 noundef %1) local_unnamed_addr #0 {
  %3 = load ptr, ptr @s_pManCnf, align 8, !tbaa !3
  %4 = icmp eq ptr %3, null
  br i1 %4, label %5, label %Cnf_ManPrepare.exit

5:                                                ; preds = %2
  %6 = tail call ptr (...) @Cnf_ManStart() #6
  store ptr %6, ptr @s_pManCnf, align 8, !tbaa !3
  br label %Cnf_ManPrepare.exit

Cnf_ManPrepare.exit:                              ; preds = %2, %5
  %7 = phi ptr [ %3, %2 ], [ %6, %5 ]
  %8 = tail call ptr @Cnf_DeriveOtherWithMan(ptr noundef %7, ptr noundef %0, i32 noundef %1)
  ret ptr %8
}